; ModuleID = '40/1586.c'
source_filename = "40/1586.c"
target datalayout = "e-m:e-p270:32:32-p271:32:32-p272:64:64-i64:64-f80:128-n8:16:32:64-S128"
target triple = "x86_64-pc-linux-gnu"

@.str = private unnamed_addr constant [4 x i8] c"%lf\00", align 1
@s = common dso_local global double 0.000000e+00, align 8
@.str.1 = private unnamed_addr constant [14 x i8] c"Invalid input\00", align 1
@.str.2 = private unnamed_addr constant [6 x i8] c"%.4lf\00", align 1
@final = common dso_local global double 0.000000e+00, align 8

; Function Attrs: noinline nounwind uwtable
define dso_local void @main() #0 {
  %1 = alloca double, align 8
  %2 = alloca double, align 8
  %3 = alloca double, align 8
  %4 = alloca double, align 8
  %5 = alloca double, align 8
  %6 = call i32 (i8*, ...) @__isoc99_scanf(i8* getelementptr inbounds ([4 x i8], [4 x i8]* @.str, i64 0, i64 0), double* %1)
  %7 = call i32 (i8*, ...) @__isoc99_scanf(i8* getelementptr inbounds ([4 x i8], [4 x i8]* @.str, i64 0, i64 0), double* %2)
  %8 = call i32 (i8*, ...) @__isoc99_scanf(i8* getelementptr inbounds ([4 x i8], [4 x i8]* @.str, i64 0, i64 0), double* %3)
  %9 = call i32 (i8*, ...) @__isoc99_scanf(i8* getelementptr inbounds ([4 x i8], [4 x i8]* @.str, i64 0, i64 0), double* %4)
  %10 = call i32 (i8*, ...) @__isoc99_scanf(i8* getelementptr inbounds ([4 x i8], [4 x i8]* @.str, i64 0, i64 0), double* %5)
  %11 = load double, double* %1, align 8
  %12 = load double, double* %2, align 8
  %13 = fadd double %11, %12
  %14 = load double, double* %3, align 8
  %15 = fadd double %13, %14
  %16 = load double, double* %4, align 8
  %17 = fadd double %15, %16
  %18 = fdiv double %17, 2.000000e+00
  store double %18, double* @s, align 8
  %19 = load double, double* %5, align 8
  %20 = fdiv double %19, 3.600000e+02
  %21 = fmul double %20, 0x400921FB4D12D84A
  store double %21, double* %5, align 8
  %22 = load double, double* %1, align 8
  %23 = load double, double* %2, align 8
  %24 = load double, double* %3, align 8
  %25 = load double, double* %4, align 8
  %26 = load double, double* @s, align 8
  %27 = load double, double* %5, align 8
  call void @four(double %22, double %23, double %24, double %25, double %26, double %27)
  ret void
}

declare dso_local i32 @__isoc99_scanf(i8*, ...) #1

; Function Attrs: noinline nounwind uwtable
define dso_local void @four(double %0, double %1, double %2, double %3, double %4, double %5) #0 {
  %7 = alloca double, align 8
  %8 = alloca double, align 8
  %9 = alloca double, align 8
  %10 = alloca double, align 8
  %11 = alloca double, align 8
  %12 = alloca double, align 8
  %13 = alloca double, align 8
  store double %0, double* %7, align 8
  store double %1, double* %8, align 8
  store double %2, double* %9, align 8
  store double %3, double* %10, align 8
  store double %4, double* %11, align 8
  store double %5, double* %12, align 8
  %14 = load double, double* %11, align 8
  %15 = load double, double* %7, align 8
  %16 = fsub double %14, %15
  %17 = load double, double* %11, align 8
  %18 = load double, double* %8, align 8
  %19 = fsub double %17, %18
  %20 = fmul double %16, %19
  %21 = load double, double* %11, align 8
  %22 = load double, double* %9, align 8
  %23 = fsub double %21, %22
  %24 = fmul double %20, %23
  %25 = load double, double* %11, align 8
  %26 = load double, double* %10, align 8
  %27 = fsub double %25, %26
  %28 = fmul double %24, %27
  %29 = load double, double* %7, align 8
  %30 = load double, double* %8, align 8
  %31 = fmul double %29, %30
  %32 = load double, double* %9, align 8
  %33 = fmul double %31, %32
  %34 = load double, double* %10, align 8
  %35 = fmul double %33, %34
  %36 = load double, double* %12, align 8
  %37 = call double @cos(double %36) #3
  %38 = fmul double %35, %37
  %39 = load double, double* %12, align 8
  %40 = call double @cos(double %39) #3
  %41 = fmul double %38, %40
  %42 = fsub double %28, %41
  store double %42, double* %13, align 8
  %43 = load double, double* %13, align 8
  %44 = fcmp olt double %43, 0.000000e+00
  br i1 %44, label %45, label %47

45:                                               ; preds = %6
  %46 = call i32 (i8*, ...) @printf(i8* getelementptr inbounds ([14 x i8], [14 x i8]* @.str.1, i64 0, i64 0))
  br label %51

47:                                               ; preds = %6
  %48 = load double, double* %13, align 8
  %49 = call double @sqrt(double %48) #3
  %50 = call i32 (i8*, ...) @printf(i8* getelementptr inbounds ([6 x i8], [6 x i8]* @.str.2, i64 0, i64 0), double %49)
  br label %51

51:                                               ; preds = %47, %45
  ret void
}

; Function Attrs: nounwind
declare dso_local double @cos(double) #2

declare dso_local i32 @printf(i8*, ...) #1

; Function Attrs: nounwind
declare dso_local double @sqrt(double) #2


!llvm.module.flags = !{!0}
!llvm.ident = !{!1}

!0 = !{i32 1, !"wchar_size", i32 4}
!1 = !{!"clang version 10.0.0-4ubuntu1 "}
